; Function Attrs: mustprogress uwtable
define dso_local noundef i32 @_ZN11cmXMLParser9ParseFileEPKc(ptr noundef nonnull align 8 dereferenceable(40) %0, ptr noundef %1) unnamed_addr #7 align 2 personality ptr @__gxx_personality_v0 {
  %3 = alloca %"class.std::basic_ifstream", align 8
  %4 = alloca %"class.std::__cxx11::basic_ostringstream", align 8
  %5 = alloca %"class.std::__cxx11::basic_string", align 8
  %.not = icmp eq ptr %1, null
  br i1 %.not, label %35, label %6

6:                                                ; preds = %2
  call void @_ZNSt14basic_ifstreamIcSt11char_traitsIcEEC1EPKcSt13_Ios_Openmode(ptr noundef nonnull align 8 dereferenceable(256) %3, ptr noundef nonnull %1, i32 noundef 8)
  %7 = load ptr, ptr %3, align 8
  %8 = getelementptr i8, ptr %7, i64 -24
  %9 = load i64, ptr %8, align 8
  %10 = getelementptr inbounds i8, ptr %3, i64 %9
  %11 = invoke noundef zeroext i1 @_ZNKSt9basic_iosIcSt11char_traitsIcEEntEv(ptr noundef nonnull align 8 dereferenceable(264) %10)
          to label %12 unwind label %13

12:                                               ; preds = %6
  br i1 %11, label %33, label %15

13:                                               ; preds = %15, %6
  %14 = landingpad { ptr, i32 }
          cleanup
  br label %34

15:                                               ; preds = %12
  invoke void @_ZNSt7__cxx1119basic_ostringstreamIcSt11char_traitsIcESaIcEEC1Ev(ptr noundef nonnull align 8 dereferenceable(112) %4)
          to label %16 unwind label %13

16:                                               ; preds = %15
  %17 = invoke noundef ptr @_ZNKSt14basic_ifstreamIcSt11char_traitsIcEE5rdbufEv(ptr noundef nonnull align 8 dereferenceable(256) %3)
          to label %18 unwind label %28

18:                                               ; preds = %16
  %19 = invoke noundef nonnull align 8 dereferenceable(8) ptr @_ZNSolsEPSt15basic_streambufIcSt11char_traitsIcEE(ptr noundef nonnull align 8 dereferenceable(8) %4, ptr noundef %17)
          to label %20 unwind label %28

20:                                               ; preds = %18
  invoke void @_ZNKSt7__cxx1119basic_ostringstreamIcSt11char_traitsIcESaIcEE3strEv(ptr dead_on_unwind nonnull writable sret(%"class.std::__cxx11::basic_string") align 8 %5, ptr noundef nonnull align 8 dereferenceable(112) %4)
          to label %21 unwind label %28

21:                                               ; preds = %20
  %22 = call noundef ptr @_ZNKSt7__cxx1112basic_stringIcSt11char_traitsIcESaIcEE5c_strEv(ptr noundef nonnull align 8 dereferenceable(32) %5) #15
  %23 = load ptr, ptr %0, align 8
  %24 = getelementptr inbounds i8, ptr %23, i64 16
  %25 = load ptr, ptr %24, align 8
  %26 = invoke noundef i32 %25(ptr noundef nonnull align 8 dereferenceable(40) %0, ptr noundef %22)
          to label %27 unwind label %30

27:                                               ; preds = %21
  call void @_ZNSt7__cxx1112basic_stringIcSt11char_traitsIcESaIcEED1Ev(ptr noundef nonnull align 8 dereferenceable(32) %5) #15
  call void @_ZNSt7__cxx1119basic_ostringstreamIcSt11char_traitsIcESaIcEED1Ev(ptr noundef nonnull align 8 dereferenceable(112) %4) #15
  br label %33

28:                                               ; preds = %20, %18, %16
  %29 = landingpad { ptr, i32 }
          cleanup
  br label %32

30:                                               ; preds = %21
  %31 = landingpad { ptr, i32 }
          cleanup
  call void @_ZNSt7__cxx1112basic_stringIcSt11char_traitsIcESaIcEED1Ev(ptr noundef nonnull align 8 dereferenceable(32) %5) #15
  br label %32

32:                                               ; preds = %30, %28
  %.pn = phi { ptr, i32 } [ %31, %30 ], [ %29, %28 ]
  call void @_ZNSt7__cxx1119basic_ostringstreamIcSt11char_traitsIcESaIcEED1Ev(ptr noundef nonnull align 8 dereferenceable(112) %4) #15
  br label %34

33:                                               ; preds = %12, %27
  %.07 = phi i32 [ %26, %27 ], [ 0, %12 ]
  call void @_ZNSt14basic_ifstreamIcSt11char_traitsIcEED1Ev(ptr noundef nonnull align 8 dereferenceable(256) %3) #15
  br label %35

34:                                               ; preds = %32, %13
  %.pn.pn = phi { ptr, i32 } [ %.pn, %32 ], [ %14, %13 ]
  call void @_ZNSt14basic_ifstreamIcSt11char_traitsIcEED1Ev(ptr noundef nonnull align 8 dereferenceable(256) %3) #15
  resume { ptr, i32 } %.pn.pn

35:                                               ; preds = %2, %33
  %.18 = phi i32 [ %.07, %33 ], [ 0, %2 ]
  ret i32 %.18
}